target datalayout = "e-m:e-p270:32:32-p271:32:32-p272:64:64-i64:64-i128:128-f80:128-n8:16:32:64-S128"
target triple = "x86_64-pc-linux-gnu"

; Function Attrs: nounwind uwtable
define i32 @Dau_DsdCheckDecExist_rec(ptr noundef %0, ptr noundef %1, ptr noundef %2, ptr noundef %3) #0 {
  %5 = alloca i32, align 4
  %6 = alloca ptr, align 8
  %7 = alloca ptr, align 8
  %8 = alloca ptr, align 8
  %9 = alloca ptr, align 8
  %10 = alloca i32, align 4
  %11 = alloca i32, align 4
  %12 = alloca [8 x i32], align 16
  %13 = alloca i32, align 4
  %14 = alloca i32, align 4
  %15 = alloca ptr, align 8
  %16 = alloca i32, align 4
  %17 = alloca i32, align 4
  %18 = alloca i32, align 4
  %19 = alloca i32, align 4
  %20 = alloca ptr, align 8
  store ptr %0, ptr %6, align 8, !tbaa !3
  store ptr %1, ptr %7, align 8, !tbaa !8
  store ptr %2, ptr %8, align 8, !tbaa !10
  store ptr %3, ptr %9, align 8, !tbaa !10
  %21 = load ptr, ptr %7, align 8, !tbaa !8
  %22 = load ptr, ptr %21, align 8, !tbaa !3
  %23 = load i8, ptr %22, align 1, !tbaa !12
  %24 = sext i8 %23 to i32
  %25 = icmp eq i32 %24, 33
  br i1 %25, label %26, label %30

26:                                               ; preds = %4
  %27 = load ptr, ptr %7, align 8, !tbaa !8
  %28 = load ptr, ptr %27, align 8, !tbaa !3
  %29 = getelementptr inbounds nuw i8, ptr %28, i32 1
  store ptr %29, ptr %27, align 8, !tbaa !3
  br label %30

30:                                               ; preds = %26, %4
  br label %31

31:                                               ; preds = %59, %30
  %32 = load ptr, ptr %7, align 8, !tbaa !8
  %33 = load ptr, ptr %32, align 8, !tbaa !3
  %34 = load i8, ptr %33, align 1, !tbaa !12
  %35 = sext i8 %34 to i32
  %36 = icmp sge i32 %35, 65
  br i1 %36, label %37, label %43

37:                                               ; preds = %31
  %38 = load ptr, ptr %7, align 8, !tbaa !8
  %39 = load ptr, ptr %38, align 8, !tbaa !3
  %40 = load i8, ptr %39, align 1, !tbaa !12
  %41 = sext i8 %40 to i32
  %42 = icmp sle i32 %41, 70
  br i1 %42, label %57, label %43

43:                                               ; preds = %37, %31
  %44 = load ptr, ptr %7, align 8, !tbaa !8
  %45 = load ptr, ptr %44, align 8, !tbaa !3
  %46 = load i8, ptr %45, align 1, !tbaa !12
  %47 = sext i8 %46 to i32
  %48 = icmp sge i32 %47, 48
  br i1 %48, label %49, label %55

49:                                               ; preds = %43
  %50 = load ptr, ptr %7, align 8, !tbaa !8
  %51 = load ptr, ptr %50, align 8, !tbaa !3
  %52 = load i8, ptr %51, align 1, !tbaa !12
  %53 = sext i8 %52 to i32
  %54 = icmp sle i32 %53, 57
  br label %55

55:                                               ; preds = %49, %43
  %56 = phi i1 [ false, %43 ], [ %54, %49 ]
  br label %57

57:                                               ; preds = %55, %37
  %58 = phi i1 [ true, %37 ], [ %56, %55 ]
  br i1 %58, label %59, label %63

59:                                               ; preds = %57
  %60 = load ptr, ptr %7, align 8, !tbaa !8
  %61 = load ptr, ptr %60, align 8, !tbaa !3
  %62 = getelementptr inbounds nuw i8, ptr %61, i32 1
  store ptr %62, ptr %60, align 8, !tbaa !3
  br label %31, !llvm.loop !13

63:                                               ; preds = %57
  %64 = load ptr, ptr %7, align 8, !tbaa !8
  %65 = load ptr, ptr %64, align 8, !tbaa !3
  %66 = load i8, ptr %65, align 1, !tbaa !12
  %67 = sext i8 %66 to i32
  %68 = icmp sge i32 %67, 97
  br i1 %68, label %69, label %79

69:                                               ; preds = %63
  %70 = load ptr, ptr %7, align 8, !tbaa !8
  %71 = load ptr, ptr %70, align 8, !tbaa !3
  %72 = load i8, ptr %71, align 1, !tbaa !12
  %73 = sext i8 %72 to i32
  %74 = icmp sle i32 %73, 122
  br i1 %74, label %75, label %79

75:                                               ; preds = %69
  %76 = load ptr, ptr %9, align 8, !tbaa !10
  %77 = load i32, ptr %76, align 4, !tbaa !15
  %78 = add nsw i32 %77, 1
  store i32 %78, ptr %76, align 4, !tbaa !15
  store i32 0, ptr %5, align 4
  br label %233

79:                                               ; preds = %69, %63
  %80 = load ptr, ptr %7, align 8, !tbaa !8
  %81 = load ptr, ptr %80, align 8, !tbaa !3
  %82 = load i8, ptr %81, align 1, !tbaa !12
  %83 = sext i8 %82 to i32
  %84 = icmp eq i32 %83, 40
  br i1 %84, label %91, label %85

85:                                               ; preds = %79
  %86 = load ptr, ptr %7, align 8, !tbaa !8
  %87 = load ptr, ptr %86, align 8, !tbaa !3
  %88 = load i8, ptr %87, align 1, !tbaa !12
  %89 = sext i8 %88 to i32
  %90 = icmp eq i32 %89, 91
  br i1 %90, label %91, label %177

91:                                               ; preds = %85, %79
  call void @llvm.lifetime.start.p0(i64 4, ptr %10) #5
  store i32 0, ptr %10, align 4, !tbaa !15
  call void @llvm.lifetime.start.p0(i64 4, ptr %11) #5
  call void @llvm.lifetime.start.p0(i64 32, ptr %12) #5
  call void @llvm.memset.p0.i64(ptr align 16 %12, i8 0, i64 32, i1 false)
  call void @llvm.lifetime.start.p0(i64 4, ptr %13) #5
  store i32 0, ptr %13, align 4, !tbaa !15
  call void @llvm.lifetime.start.p0(i64 4, ptr %14) #5
  call void @llvm.lifetime.start.p0(i64 8, ptr %15) #5
  %92 = load ptr, ptr %6, align 8, !tbaa !3
  %93 = load ptr, ptr %8, align 8, !tbaa !10
  %94 = load ptr, ptr %7, align 8, !tbaa !8
  %95 = load ptr, ptr %94, align 8, !tbaa !3
  %96 = load ptr, ptr %6, align 8, !tbaa !3
  %97 = ptrtoint ptr %95 to i64
  %98 = ptrtoint ptr %96 to i64
  %99 = sub i64 %97, %98
  %100 = getelementptr inbounds i32, ptr %93, i64 %99
  %101 = load i32, ptr %100, align 4, !tbaa !15
  %102 = sext i32 %101 to i64
  %103 = getelementptr inbounds i8, ptr %92, i64 %102
  store ptr %103, ptr %15, align 8, !tbaa !3
  %104 = load ptr, ptr %7, align 8, !tbaa !8
  %105 = load ptr, ptr %104, align 8, !tbaa !3
  %106 = getelementptr inbounds nuw i8, ptr %105, i32 1
  store ptr %106, ptr %104, align 8, !tbaa !3
  br label %107

107:                                              ; preds = %130, %91
  %108 = load ptr, ptr %7, align 8, !tbaa !8
  %109 = load ptr, ptr %108, align 8, !tbaa !3
  %110 = load ptr, ptr %15, align 8, !tbaa !3
  %111 = icmp ult ptr %109, %110
  br i1 %111, label %112, label %134

112:                                              ; preds = %107
  %113 = load ptr, ptr %6, align 8, !tbaa !3
  %114 = load ptr, ptr %7, align 8, !tbaa !8
  %115 = load ptr, ptr %8, align 8, !tbaa !10
  %116 = load i32, ptr %13, align 4, !tbaa !15
  %117 = sext i32 %116 to i64
  %118 = getelementptr inbounds [8 x i32], ptr %12, i64 0, i64 %117
  %119 = call i32 @Dau_DsdCheckDecExist_rec(ptr noundef %113, ptr noundef %114, ptr noundef %115, ptr noundef %118)
  %120 = load i32, ptr %10, align 4, !tbaa !15
  %121 = or i32 %120, %119
  store i32 %121, ptr %10, align 4, !tbaa !15
  %122 = load i32, ptr %13, align 4, !tbaa !15
  %123 = add nsw i32 %122, 1
  store i32 %123, ptr %13, align 4, !tbaa !15
  %124 = sext i32 %122 to i64
  %125 = getelementptr inbounds [8 x i32], ptr %12, i64 0, i64 %124
  %126 = load i32, ptr %125, align 4, !tbaa !15
  %127 = load ptr, ptr %9, align 8, !tbaa !10
  %128 = load i32, ptr %127, align 4, !tbaa !15
  %129 = add nsw i32 %128, %126
  store i32 %129, ptr %127, align 4, !tbaa !15
  br label %130

130:                                              ; preds = %112
  %131 = load ptr, ptr %7, align 8, !tbaa !8
  %132 = load ptr, ptr %131, align 8, !tbaa !3
  %133 = getelementptr inbounds nuw i8, ptr %132, i32 1
  store ptr %133, ptr %131, align 8, !tbaa !3
  br label %107, !llvm.loop !17

134:                                              ; preds = %107
  %135 = load i32, ptr %13, align 4, !tbaa !15
  %136 = shl i32 1, %135
  store i32 %136, ptr %14, align 4, !tbaa !15
  store i32 1, ptr %11, align 4, !tbaa !15
  br label %137

137:                                              ; preds = %172, %134
  %138 = load i32, ptr %11, align 4, !tbaa !15
  %139 = load i32, ptr %14, align 4, !tbaa !15
  %140 = icmp slt i32 %138, %139
  br i1 %140, label %141, label %175

141:                                              ; preds = %137
  call void @llvm.lifetime.start.p0(i64 4, ptr %16) #5
  call void @llvm.lifetime.start.p0(i64 4, ptr %17) #5
  store i32 0, ptr %17, align 4, !tbaa !15
  store i32 0, ptr %16, align 4, !tbaa !15
  br label %142

142:                                              ; preds = %160, %141
  %143 = load i32, ptr %16, align 4, !tbaa !15
  %144 = load i32, ptr %13, align 4, !tbaa !15
  %145 = icmp slt i32 %143, %144
  br i1 %145, label %146, label %163

146:                                              ; preds = %142
  %147 = load i32, ptr %11, align 4, !tbaa !15
  %148 = load i32, ptr %16, align 4, !tbaa !15
  %149 = ashr i32 %147, %148
  %150 = and i32 %149, 1
  %151 = icmp ne i32 %150, 0
  br i1 %151, label %152, label %159

152:                                              ; preds = %146
  %153 = load i32, ptr %16, align 4, !tbaa !15
  %154 = sext i32 %153 to i64
  %155 = getelementptr inbounds [8 x i32], ptr %12, i64 0, i64 %154
  %156 = load i32, ptr %155, align 4, !tbaa !15
  %157 = load i32, ptr %17, align 4, !tbaa !15
  %158 = add nsw i32 %157, %156
  store i32 %158, ptr %17, align 4, !tbaa !15
  br label %159

159:                                              ; preds = %152, %146
  br label %160

160:                                              ; preds = %159
  %161 = load i32, ptr %16, align 4, !tbaa !15
  %162 = add nsw i32 %161, 1
  store i32 %162, ptr %16, align 4, !tbaa !15
  br label %142, !llvm.loop !18

163:                                              ; preds = %142
  %164 = load i32, ptr %17, align 4, !tbaa !15
  %165 = icmp sge i32 %164, 2
  br i1 %165, label %166, label %171

166:                                              ; preds = %163
  %167 = load i32, ptr %17, align 4, !tbaa !15
  %168 = shl i32 1, %167
  %169 = load i32, ptr %10, align 4, !tbaa !15
  %170 = or i32 %169, %168
  store i32 %170, ptr %10, align 4, !tbaa !15
  br label %171

171:                                              ; preds = %166, %163
  call void @llvm.lifetime.end.p0(i64 4, ptr %17) #5
  call void @llvm.lifetime.end.p0(i64 4, ptr %16) #5
  br label %172

172:                                              ; preds = %171
  %173 = load i32, ptr %11, align 4, !tbaa !15
  %174 = add nsw i32 %173, 1
  store i32 %174, ptr %11, align 4, !tbaa !15
  br label %137, !llvm.loop !19

175:                                              ; preds = %137
  %176 = load i32, ptr %10, align 4, !tbaa !15
  store i32 %176, ptr %5, align 4
  call void @llvm.lifetime.end.p0(i64 8, ptr %15) #5
  call void @llvm.lifetime.end.p0(i64 4, ptr %14) #5
  call void @llvm.lifetime.end.p0(i64 4, ptr %13) #5
  call void @llvm.lifetime.end.p0(i64 32, ptr %12) #5
  call void @llvm.lifetime.end.p0(i64 4, ptr %11) #5
  call void @llvm.lifetime.end.p0(i64 4, ptr %10) #5
  br label %233

177:                                              ; preds = %85
  %178 = load ptr, ptr %7, align 8, !tbaa !8
  %179 = load ptr, ptr %178, align 8, !tbaa !3
  %180 = load i8, ptr %179, align 1, !tbaa !12
  %181 = sext i8 %180 to i32
  %182 = icmp eq i32 %181, 60
  br i1 %182, label %189, label %183

183:                                              ; preds = %177
  %184 = load ptr, ptr %7, align 8, !tbaa !8
  %185 = load ptr, ptr %184, align 8, !tbaa !3
  %186 = load i8, ptr %185, align 1, !tbaa !12
  %187 = sext i8 %186 to i32
  %188 = icmp eq i32 %187, 123
  br i1 %188, label %189, label %232

189:                                              ; preds = %183, %177
  call void @llvm.lifetime.start.p0(i64 4, ptr %18) #5
  call void @llvm.lifetime.start.p0(i64 4, ptr %19) #5
  store i32 0, ptr %19, align 4, !tbaa !15
  call void @llvm.lifetime.start.p0(i64 8, ptr %20) #5
  %190 = load ptr, ptr %6, align 8, !tbaa !3
  %191 = load ptr, ptr %8, align 8, !tbaa !10
  %192 = load ptr, ptr %7, align 8, !tbaa !8
  %193 = load ptr, ptr %192, align 8, !tbaa !3
  %194 = load ptr, ptr %6, align 8, !tbaa !3
  %195 = ptrtoint ptr %193 to i64
  %196 = ptrtoint ptr %194 to i64
  %197 = sub i64 %195, %196
  %198 = getelementptr inbounds i32, ptr %191, i64 %197
  %199 = load i32, ptr %198, align 4, !tbaa !15
  %200 = sext i32 %199 to i64
  %201 = getelementptr inbounds i8, ptr %190, i64 %200
  store ptr %201, ptr %20, align 8, !tbaa !3
  %202 = load ptr, ptr %7, align 8, !tbaa !8
  %203 = load ptr, ptr %202, align 8, !tbaa !3
  %204 = getelementptr inbounds nuw i8, ptr %203, i32 1
  store ptr %204, ptr %202, align 8, !tbaa !3
  br label %205

205:                                              ; preds = %221, %189
  %206 = load ptr, ptr %7, align 8, !tbaa !8
  %207 = load ptr, ptr %206, align 8, !tbaa !3
  %208 = load ptr, ptr %20, align 8, !tbaa !3
  %209 = icmp ult ptr %207, %208
  br i1 %209, label %210, label %225

210:                                              ; preds = %205
  store i32 0, ptr %18, align 4, !tbaa !15
  %211 = load ptr, ptr %6, align 8, !tbaa !3
  %212 = load ptr, ptr %7, align 8, !tbaa !8
  %213 = load ptr, ptr %8, align 8, !tbaa !10
  %214 = call i32 @Dau_DsdCheckDecExist_rec(ptr noundef %211, ptr noundef %212, ptr noundef %213, ptr noundef %18)
  %215 = load i32, ptr %19, align 4, !tbaa !15
  %216 = or i32 %215, %214
  store i32 %216, ptr %19, align 4, !tbaa !15
  %217 = load i32, ptr %18, align 4, !tbaa !15
  %218 = load ptr, ptr %9, align 8, !tbaa !10
  %219 = load i32, ptr %218, align 4, !tbaa !15
  %220 = add nsw i32 %219, %217
  store i32 %220, ptr %218, align 4, !tbaa !15
  br label %221

221:                                              ; preds = %210
  %222 = load ptr, ptr %7, align 8, !tbaa !8
  %223 = load ptr, ptr %222, align 8, !tbaa !3
  %224 = getelementptr inbounds nuw i8, ptr %223, i32 1
  store ptr %224, ptr %222, align 8, !tbaa !3
  br label %205, !llvm.loop !20

225:                                              ; preds = %205
  %226 = load ptr, ptr %9, align 8, !tbaa !10
  %227 = load i32, ptr %226, align 4, !tbaa !15
  %228 = shl i32 1, %227
  %229 = load i32, ptr %19, align 4, !tbaa !15
  %230 = or i32 %229, %228
  store i32 %230, ptr %19, align 4, !tbaa !15
  %231 = load i32, ptr %19, align 4, !tbaa !15
  store i32 %231, ptr %5, align 4
  call void @llvm.lifetime.end.p0(i64 8, ptr %20) #5
  call void @llvm.lifetime.end.p0(i64 4, ptr %19) #5
  call void @llvm.lifetime.end.p0(i64 4, ptr %18) #5
  br label %233

232:                                              ; preds = %183
  store i32 0, ptr %5, align 4
  br label %233

233:                                              ; preds = %232, %225, %175, %75
  %234 = load i32, ptr %5, align 4
  ret i32 %234
}