; Function Attrs: nofree nosync nounwind memory(read, argmem: readwrite, inaccessiblemem: none) uwtable
define i32 @Dau_DsdCheckDecExist_rec(ptr noundef %0, ptr noundef %1, ptr noundef %2, ptr noundef captures(none) %3) local_unnamed_addr #0 {
  %5 = alloca [8 x i32], align 16
  %6 = alloca i32, align 4
  %7 = load ptr, ptr %1, align 8, !tbaa !3
  %8 = load i8, ptr %7, align 1, !tbaa !8
  %9 = icmp eq i8 %8, 33
  br i1 %9, label %10, label %12

10:                                               ; preds = %4
  %11 = getelementptr inbounds nuw i8, ptr %7, i64 1
  store ptr %11, ptr %1, align 8, !tbaa !3
  %.pre = load i8, ptr %11, align 1, !tbaa !8
  br label %12

12:                                               ; preds = %10, %4
  %13 = phi i8 [ %.pre, %10 ], [ %8, %4 ]
  %.promoted = phi ptr [ %11, %10 ], [ %7, %4 ]
  %14 = add i8 %13, -65
  %or.cond79 = icmp ult i8 %14, 6
  %15 = add i8 %13, -48
  %or.cond7580 = icmp ult i8 %15, 10
  %or.cond7781 = or i1 %or.cond79, %or.cond7580
  br i1 %or.cond7781, label %.critedge, label %.critedge2

.critedge:                                        ; preds = %12, %.critedge
  %16 = phi ptr [ %17, %.critedge ], [ %.promoted, %12 ]
  %17 = getelementptr inbounds nuw i8, ptr %16, i64 1
  store ptr %17, ptr %1, align 8, !tbaa !3
  %18 = load i8, ptr %17, align 1, !tbaa !8
  %19 = add i8 %18, -65
  %or.cond = icmp ult i8 %19, 6
  %20 = add i8 %18, -48
  %or.cond75 = icmp ult i8 %20, 10
  %or.cond77 = or i1 %or.cond, %or.cond75
  br i1 %or.cond77, label %.critedge, label %.critedge2, !llvm.loop !9

.critedge2:                                       ; preds = %.critedge, %12
  %.lcssa78 = phi ptr [ %.promoted, %12 ], [ %17, %.critedge ]
  %.lcssa = phi i8 [ %13, %12 ], [ %18, %.critedge ]
  %21 = add i8 %.lcssa, -97
  %or.cond76 = icmp ult i8 %21, 26
  br i1 %or.cond76, label %22, label %25

22:                                               ; preds = %.critedge2
  %23 = load i32, ptr %3, align 4, !tbaa !11
  %24 = add nsw i32 %23, 1
  store i32 %24, ptr %3, align 4, !tbaa !11
  br label %78

25:                                               ; preds = %.critedge2
  switch i8 %.lcssa, label %78 [
    i8 40, label %26
    i8 91, label %26
    i8 60, label %59
    i8 123, label %59
  ]

26:                                               ; preds = %25, %25
  call void @llvm.lifetime.start.p0(i64 32, ptr nonnull %5) #6
  call void @llvm.memset.p0.i64(ptr noundef nonnull align 16 dereferenceable(32) %5, i8 0, i64 32, i1 false)
  %27 = ptrtoint ptr %.lcssa78 to i64
  %28 = ptrtoint ptr %0 to i64
  %29 = sub i64 %27, %28
  %30 = getelementptr inbounds i32, ptr %2, i64 %29
  %31 = load i32, ptr %30, align 4, !tbaa !11
  %32 = sext i32 %31 to i64
  %33 = getelementptr inbounds i8, ptr %0, i64 %32
  %storemerge7386 = getelementptr inbounds nuw i8, ptr %.lcssa78, i64 1
  store ptr %storemerge7386, ptr %1, align 8, !tbaa !3
  %34 = icmp ult ptr %storemerge7386, %33
  br i1 %34, label %.lr.ph90, label %._crit_edge101

.lr.ph90:                                         ; preds = %26, %.lr.ph90
  %indvars.iv = phi i64 [ %indvars.iv.next, %.lr.ph90 ], [ 0, %26 ]
  %.06588 = phi i32 [ %37, %.lr.ph90 ], [ 0, %26 ]
  %35 = getelementptr inbounds nuw [8 x i32], ptr %5, i64 0, i64 %indvars.iv
  %36 = call i32 @Dau_DsdCheckDecExist_rec(ptr noundef %0, ptr noundef nonnull %1, ptr noundef %2, ptr noundef nonnull %35)
  %37 = or i32 %36, %.06588
  %indvars.iv.next = add nuw nsw i64 %indvars.iv, 1
  %38 = load i32, ptr %35, align 4, !tbaa !11
  %39 = load i32, ptr %3, align 4, !tbaa !11
  %40 = add nsw i32 %39, %38
  store i32 %40, ptr %3, align 4, !tbaa !11
  %41 = load ptr, ptr %1, align 8, !tbaa !3
  %storemerge73 = getelementptr inbounds nuw i8, ptr %41, i64 1
  store ptr %storemerge73, ptr %1, align 8, !tbaa !3
  %42 = icmp ult ptr %storemerge73, %33
  br i1 %42, label %.lr.ph90, label %._crit_edge91, !llvm.loop !13

._crit_edge91:                                    ; preds = %.lr.ph90
  %43 = trunc nuw i64 %indvars.iv.next to i32
  %44 = shl nuw i32 1, %43
  %45 = icmp sgt i32 %44, 1
  br i1 %45, label %.preheader.us.preheader, label %._crit_edge101

.preheader.us.preheader:                          ; preds = %._crit_edge91
  %wide.trip.count = and i64 %indvars.iv.next, 4294967295
  br label %.preheader.us

.preheader.us:                                    ; preds = %.preheader.us.preheader, %._crit_edge97.us
  %.166100.us = phi i32 [ %.2.us, %._crit_edge97.us ], [ %37, %.preheader.us.preheader ]
  %.06799.us = phi i32 [ %58, %._crit_edge97.us ], [ 1, %.preheader.us.preheader ]
  br label %46

46:                                               ; preds = %.preheader.us, %54
  %indvars.iv110 = phi i64 [ 0, %.preheader.us ], [ %indvars.iv.next111, %54 ]
  %.06395.us = phi i32 [ 0, %.preheader.us ], [ %.1.us, %54 ]
  %47 = trunc nuw nsw i64 %indvars.iv110 to i32
  %48 = shl nuw i32 1, %47
  %49 = and i32 %48, %.06799.us
  %.not.us = icmp eq i32 %49, 0
  br i1 %.not.us, label %54, label %50

50:                                               ; preds = %46
  %51 = getelementptr inbounds nuw [8 x i32], ptr %5, i64 0, i64 %indvars.iv110
  %52 = load i32, ptr %51, align 4, !tbaa !11
  %53 = add nsw i32 %52, %.06395.us
  br label %54

54:                                               ; preds = %50, %46
  %.1.us = phi i32 [ %53, %50 ], [ %.06395.us, %46 ]
  %indvars.iv.next111 = add nuw nsw i64 %indvars.iv110, 1
  %exitcond.not = icmp eq i64 %indvars.iv.next111, %wide.trip.count
  br i1 %exitcond.not, label %._crit_edge97.us, label %46, !llvm.loop !14

._crit_edge97.us:                                 ; preds = %54
  %55 = icmp sgt i32 %.1.us, 1
  %56 = shl nuw i32 1, %.1.us
  %57 = select i1 %55, i32 %56, i32 0
  %.2.us = or i32 %57, %.166100.us
  %58 = add nuw nsw i32 %.06799.us, 1
  %exitcond113.not = icmp eq i32 %58, %44
  br i1 %exitcond113.not, label %._crit_edge101, label %.preheader.us, !llvm.loop !15

._crit_edge101:                                   ; preds = %._crit_edge97.us, %26, %._crit_edge91
  %.166.lcssa = phi i32 [ %37, %._crit_edge91 ], [ 0, %26 ], [ %.2.us, %._crit_edge97.us ]
  call void @llvm.lifetime.end.p0(i64 32, ptr nonnull %5) #6
  br label %78

59:                                               ; preds = %25, %25
  call void @llvm.lifetime.start.p0(i64 4, ptr nonnull %6) #6
  %60 = ptrtoint ptr %.lcssa78 to i64
  %61 = ptrtoint ptr %0 to i64
  %62 = sub i64 %60, %61
  %63 = getelementptr inbounds i32, ptr %2, i64 %62
  %64 = load i32, ptr %63, align 4, !tbaa !11
  %65 = sext i32 %64 to i64
  %66 = getelementptr inbounds i8, ptr %0, i64 %65
  %storemerge83 = getelementptr inbounds nuw i8, ptr %.lcssa78, i64 1
  store ptr %storemerge83, ptr %1, align 8, !tbaa !3
  %67 = icmp ult ptr %storemerge83, %66
  br i1 %67, label %.lr.ph, label %.._crit_edge_crit_edge

.._crit_edge_crit_edge:                           ; preds = %59
  %.pre115 = load i32, ptr %3, align 4, !tbaa !11
  br label %._crit_edge

.lr.ph:                                           ; preds = %59, %.lr.ph
  %.06284 = phi i32 [ %69, %.lr.ph ], [ 0, %59 ]
  store i32 0, ptr %6, align 4, !tbaa !11
  %68 = call i32 @Dau_DsdCheckDecExist_rec(ptr noundef %0, ptr noundef nonnull %1, ptr noundef %2, ptr noundef nonnull %6)
  %69 = or i32 %68, %.06284
  %70 = load i32, ptr %6, align 4, !tbaa !11
  %71 = load i32, ptr %3, align 4, !tbaa !11
  %72 = add nsw i32 %71, %70
  store i32 %72, ptr %3, align 4, !tbaa !11
  %73 = load ptr, ptr %1, align 8, !tbaa !3
  %storemerge = getelementptr inbounds nuw i8, ptr %73, i64 1
  store ptr %storemerge, ptr %1, align 8, !tbaa !3
  %74 = icmp ult ptr %storemerge, %66
  br i1 %74, label %.lr.ph, label %._crit_edge, !llvm.loop !16

._crit_edge:                                      ; preds = %.lr.ph, %.._crit_edge_crit_edge
  %75 = phi i32 [ %.pre115, %.._crit_edge_crit_edge ], [ %72, %.lr.ph ]
  %.062.lcssa = phi i32 [ 0, %.._crit_edge_crit_edge ], [ %69, %.lr.ph ]
  %76 = shl nuw i32 1, %75
  %77 = or i32 %76, %.062.lcssa
  call void @llvm.lifetime.end.p0(i64 4, ptr nonnull %6) #6
  br label %78

78:                                               ; preds = %25, %._crit_edge, %._crit_edge101, %22
  %.0 = phi i32 [ 0, %22 ], [ %.166.lcssa, %._crit_edge101 ], [ %77, %._crit_edge ], [ 0, %25 ]
  ret i32 %.0
}